Archive member included to satisfy reference by file (symbol)

libs/libopencm3/lib/libopencm3_stm32f1.a(vector.o)
                              (reset_handler)

Discarded input sections

 .group         0x00000000        0xc CMakeFiles/stm32_template.dir/main.c.o
 .group         0x00000000        0xc CMakeFiles/stm32_template.dir/main.c.o
 .group         0x00000000        0xc CMakeFiles/stm32_template.dir/main.c.o
 .group         0x00000000        0xc CMakeFiles/stm32_template.dir/main.c.o
 .group         0x00000000        0xc CMakeFiles/stm32_template.dir/main.c.o
 .group         0x00000000        0xc CMakeFiles/stm32_template.dir/main.c.o
 .group         0x00000000        0xc CMakeFiles/stm32_template.dir/main.c.o
 .text          0x00000000        0x0 CMakeFiles/stm32_template.dir/main.c.o
 .data          0x00000000        0x0 CMakeFiles/stm32_template.dir/main.c.o
 .bss           0x00000000        0x0 CMakeFiles/stm32_template.dir/main.c.o
 .group         0x00000000        0xc libs/libopencm3/lib/libopencm3_stm32f1.a(vector.o)
 .group         0x00000000        0xc libs/libopencm3/lib/libopencm3_stm32f1.a(vector.o)
 .group         0x00000000        0xc libs/libopencm3/lib/libopencm3_stm32f1.a(vector.o)
 .group         0x00000000        0xc libs/libopencm3/lib/libopencm3_stm32f1.a(vector.o)
 .group         0x00000000        0xc libs/libopencm3/lib/libopencm3_stm32f1.a(vector.o)
 .group         0x00000000        0xc libs/libopencm3/lib/libopencm3_stm32f1.a(vector.o)
 .group         0x00000000        0xc libs/libopencm3/lib/libopencm3_stm32f1.a(vector.o)
 .group         0x00000000        0xc libs/libopencm3/lib/libopencm3_stm32f1.a(vector.o)
 .group         0x00000000        0xc libs/libopencm3/lib/libopencm3_stm32f1.a(vector.o)
 .text          0x00000000        0x0 libs/libopencm3/lib/libopencm3_stm32f1.a(vector.o)
 .data          0x00000000        0x0 libs/libopencm3/lib/libopencm3_stm32f1.a(vector.o)
 .bss           0x00000000        0x0 libs/libopencm3/lib/libopencm3_stm32f1.a(vector.o)
 .debug_macro   0x00000000      0x34e libs/libopencm3/lib/libopencm3_stm32f1.a(vector.o)

Memory Configuration

Name             Origin             Length             Attributes
rom              0x08000000         0x00020000         xr
ram              0x20000000         0x00005000         xrw
*default*        0x00000000         0xffffffff

Linker script and memory map


.text           0x08000000      0x25c
 *(.vectors)
 .vectors       0x08000000      0x150 libs/libopencm3/lib/libopencm3_stm32f1.a(vector.o)
                0x08000000                vector_table
 *(.text*)
 .text.main     0x08000150       0x74 CMakeFiles/stm32_template.dir/main.c.o
                0x08000150                main
 .text.blocking_handler
                0x080001c4        0x2 libs/libopencm3/lib/libopencm3_stm32f1.a(vector.o)
                0x080001c4                usart3_isr
                0x080001c4                rtc_isr
                0x080001c4                tim7_isr
                0x080001c4                adc1_2_isr
                0x080001c4                tim1_trg_com_isr
                0x080001c4                usb_hp_can_tx_isr
                0x080001c4                tim6_isr
                0x080001c4                usb_wakeup_isr
                0x080001c4                blocking_handler
                0x080001c4                tim5_isr
                0x080001c4                otg_fs_isr
                0x080001c4                spi1_isr
                0x080001c4                exti2_isr
                0x080001c4                dma1_channel6_isr
                0x080001c4                can_rx1_isr
                0x080001c4                dma1_channel5_isr
                0x080001c4                dma2_channel5_isr
                0x080001c4                usart1_isr
                0x080001c4                usage_fault_handler
                0x080001c4                tim8_trg_com_isr
                0x080001c4                can2_rx0_isr
                0x080001c4                tim1_brk_isr
                0x080001c4                can2_rx1_isr
                0x080001c4                tim1_cc_isr
                0x080001c4                sdio_isr
                0x080001c4                eth_isr
                0x080001c4                dma1_channel4_isr
                0x080001c4                tim8_brk_isr
                0x080001c4                dma2_channel4_5_isr
                0x080001c4                pvd_isr
                0x080001c4                rcc_isr
                0x080001c4                flash_isr
                0x080001c4                uart4_isr
                0x080001c4                rtc_alarm_isr
                0x080001c4                exti15_10_isr
                0x080001c4                hard_fault_handler
                0x080001c4                exti1_isr
                0x080001c4                i2c1_ev_isr
                0x080001c4                dma2_channel1_isr
                0x080001c4                spi2_isr
                0x080001c4                tim8_up_isr
                0x080001c4                dma2_channel2_isr
                0x080001c4                exti3_isr
                0x080001c4                adc3_isr
                0x080001c4                tim3_isr
                0x080001c4                usart2_isr
                0x080001c4                usb_lp_can_rx0_isr
                0x080001c4                i2c2_er_isr
                0x080001c4                i2c2_ev_isr
                0x080001c4                uart5_isr
                0x080001c4                fsmc_isr
                0x080001c4                dma1_channel1_isr
                0x080001c4                exti4_isr
                0x080001c4                mem_manage_handler
                0x080001c4                can2_tx_isr
                0x080001c4                exti9_5_isr
                0x080001c4                dma2_channel3_isr
                0x080001c4                dma1_channel7_isr
                0x080001c4                tim1_up_isr
                0x080001c4                can2_sce_isr
                0x080001c4                tim4_isr
                0x080001c4                dma1_channel2_isr
                0x080001c4                i2c1_er_isr
                0x080001c4                can_sce_isr
                0x080001c4                tim8_cc_isr
                0x080001c4                tamper_isr
                0x080001c4                eth_wkup_isr
                0x080001c4                bus_fault_handler
                0x080001c4                wwdg_isr
                0x080001c4                dma1_channel3_isr
                0x080001c4                spi3_isr
                0x080001c4                tim2_isr
                0x080001c4                exti0_isr
 .text.null_handler
                0x080001c6        0x2 libs/libopencm3/lib/libopencm3_stm32f1.a(vector.o)
                0x080001c6                null_handler
                0x080001c6                sv_call_handler
                0x080001c6                pend_sv_handler
                0x080001c6                debug_monitor_handler
                0x080001c6                sys_tick_handler
                0x080001c6                nmi_handler
 .text.reset_handler
                0x080001c8       0x94 libs/libopencm3/lib/libopencm3_stm32f1.a(vector.o)
                0x080001c8                reset_handler
                0x0800025c                        . = ALIGN (0x4)
 *(.rodata*)
                0x0800025c                        . = ALIGN (0x4)

.glue_7         0x0800025c        0x0
 .glue_7        0x0800025c        0x0 linker stubs

.glue_7t        0x0800025c        0x0
 .glue_7t       0x0800025c        0x0 linker stubs

.vfp11_veneer   0x0800025c        0x0
 .vfp11_veneer  0x0800025c        0x0 linker stubs

.v4_bx          0x0800025c        0x0
 .v4_bx         0x0800025c        0x0 linker stubs

.iplt           0x0800025c        0x0
 .iplt          0x0800025c        0x0 libs/libopencm3/lib/libopencm3_stm32f1.a(vector.o)

.rel.dyn        0x0800025c        0x0
 .rel.iplt      0x0800025c        0x0 libs/libopencm3/lib/libopencm3_stm32f1.a(vector.o)

.preinit_array  0x0800025c        0x0
                0x0800025c                        . = ALIGN (0x4)
                0x0800025c                        __preinit_array_start = .
 *(.preinit_array)
                0x0800025c                        __preinit_array_end = .

.init_array     0x0800025c        0x0
                0x0800025c                        . = ALIGN (0x4)
                0x0800025c                        __init_array_start = .
 *(SORT_BY_NAME(.init_array.*))
 *(.init_array)
                0x0800025c                        __init_array_end = .

.fini_array     0x0800025c        0x0
                0x0800025c                        . = ALIGN (0x4)
                0x0800025c                        __fini_array_start = .
 *(.fini_array)
 *(SORT_BY_NAME(.fini_array.*))
                0x0800025c                        __fini_array_end = .

.ARM.extab
 *(.ARM.extab*)

.ARM.exidx      0x0800025c        0x0
                0x0800025c                        __exidx_start = .
 *(.ARM.exidx*)
                0x0800025c                        __exidx_end = .
                0x0800025c                        . = ALIGN (0x4)
                0x0800025c                        _etext = .

.noinit
 *(.noinit*)
                0x0800025c                        . = ALIGN (0x4)

.data           0x20000000        0x0 load address 0x0800025c
                0x20000000                        _data = .
 *(.data*)
 *(.ramtext*)
                0x20000000                        . = ALIGN (0x4)
                0x20000000                        _edata = .
                0x0800025c                        _data_loadaddr = LOADADDR (.data)

.igot.plt       0x20000000        0x0 load address 0x0800025c
 .igot.plt      0x20000000        0x0 libs/libopencm3/lib/libopencm3_stm32f1.a(vector.o)

.bss            0x20000000        0x0 load address 0x0800025c
 *(.bss*)
 *(COMMON)
                0x20000000                        . = ALIGN (0x4)
                0x20000000                        _ebss = .

/DISCARD/
 *(.eh_frame)
                0x20000000                        . = ALIGN (0x4)
                0x20000000                        end = .
                0x20005000                        PROVIDE (_stack = (ORIGIN (ram) + LENGTH (ram)))
LOAD CMakeFiles/stm32_template.dir/main.c.o
LOAD libs/libopencm3/lib/libopencm3_stm32f1.a
LOAD lib/libfreertos_kernel.a
START GROUP
LOAD /usr/lib/gcc/arm-none-eabi/13.2.1/thumb/v7-m/nofp/libgcc.a
LOAD /usr/lib/gcc/arm-none-eabi/13.2.1/../../../arm-none-eabi/lib/thumb/v7-m/nofp/libg.a
LOAD /usr/lib/gcc/arm-none-eabi/13.2.1/../../../arm-none-eabi/lib/thumb/v7-m/nofp/libc.a
END GROUP
OUTPUT(build/stm32_template.elf elf32-littlearm)
LOAD linker stubs

.debug_info     0x00000000      0x44b
 .debug_info    0x00000000      0x193 CMakeFiles/stm32_template.dir/main.c.o
 .debug_info    0x00000193      0x2b8 libs/libopencm3/lib/libopencm3_stm32f1.a(vector.o)

.debug_abbrev   0x00000000      0x1f3
 .debug_abbrev  0x00000000       0xaa CMakeFiles/stm32_template.dir/main.c.o
 .debug_abbrev  0x000000aa      0x149 libs/libopencm3/lib/libopencm3_stm32f1.a(vector.o)

.debug_aranges  0x00000000       0x50
 .debug_aranges
                0x00000000       0x20 CMakeFiles/stm32_template.dir/main.c.o
 .debug_aranges
                0x00000020       0x30 libs/libopencm3/lib/libopencm3_stm32f1.a(vector.o)

.debug_rnglists
                0x00000000       0x33
 .debug_rnglists
                0x00000000       0x13 CMakeFiles/stm32_template.dir/main.c.o
 .debug_rnglists
                0x00000013       0x20 libs/libopencm3/lib/libopencm3_stm32f1.a(vector.o)

.debug_macro    0x00000000     0xaa0c
 .debug_macro   0x00000000       0x55 CMakeFiles/stm32_template.dir/main.c.o
 .debug_macro   0x00000055      0xac0 CMakeFiles/stm32_template.dir/main.c.o
 .debug_macro   0x00000b15      0x34e CMakeFiles/stm32_template.dir/main.c.o
 .debug_macro   0x00000e63       0x56 CMakeFiles/stm32_template.dir/main.c.o
 .debug_macro   0x00000eb9       0x3a CMakeFiles/stm32_template.dir/main.c.o
 .debug_macro   0x00000ef3       0x18 CMakeFiles/stm32_template.dir/main.c.o
 .debug_macro   0x00000f0b      0xa8b CMakeFiles/stm32_template.dir/main.c.o
 .debug_macro   0x00001996     0x7def CMakeFiles/stm32_template.dir/main.c.o
 .debug_macro   0x00009785       0x86 libs/libopencm3/lib/libopencm3_stm32f1.a(vector.o)
 .debug_macro   0x0000980b      0xac0 libs/libopencm3/lib/libopencm3_stm32f1.a(vector.o)
 .debug_macro   0x0000a2cb       0x76 libs/libopencm3/lib/libopencm3_stm32f1.a(vector.o)
 .debug_macro   0x0000a341       0x1c libs/libopencm3/lib/libopencm3_stm32f1.a(vector.o)
 .debug_macro   0x0000a35d       0x22 libs/libopencm3/lib/libopencm3_stm32f1.a(vector.o)
 .debug_macro   0x0000a37f       0xe8 libs/libopencm3/lib/libopencm3_stm32f1.a(vector.o)
 .debug_macro   0x0000a467      0x395 libs/libopencm3/lib/libopencm3_stm32f1.a(vector.o)
 .debug_macro   0x0000a7fc       0x6e libs/libopencm3/lib/libopencm3_stm32f1.a(vector.o)
 .debug_macro   0x0000a86a      0x1a2 libs/libopencm3/lib/libopencm3_stm32f1.a(vector.o)

.debug_line     0x00000000      0x405
 .debug_line    0x00000000      0x158 CMakeFiles/stm32_template.dir/main.c.o
 .debug_line    0x00000158      0x2ad libs/libopencm3/lib/libopencm3_stm32f1.a(vector.o)

.debug_str      0x00000000    0x35dde
 .debug_str     0x00000000    0x35dde CMakeFiles/stm32_template.dir/main.c.o
                              0x333be (size before relaxing)
 .debug_str     0x00035dde     0x630a libs/libopencm3/lib/libopencm3_stm32f1.a(vector.o)

.comment        0x00000000       0x26
 .comment       0x00000000       0x26 CMakeFiles/stm32_template.dir/main.c.o
                                 0x27 (size before relaxing)
 .comment       0x00000026       0x27 libs/libopencm3/lib/libopencm3_stm32f1.a(vector.o)

.ARM.attributes
                0x00000000       0x2d
 .ARM.attributes
                0x00000000       0x2d CMakeFiles/stm32_template.dir/main.c.o
 .ARM.attributes
                0x0000002d       0x2d libs/libopencm3/lib/libopencm3_stm32f1.a(vector.o)

.debug_frame    0x00000000       0x74
 .debug_frame   0x00000000       0x28 CMakeFiles/stm32_template.dir/main.c.o
 .debug_frame   0x00000028       0x4c libs/libopencm3/lib/libopencm3_stm32f1.a(vector.o)

.debug_loclists
                0x00000000       0xb6
 .debug_loclists
                0x00000000       0xb6 libs/libopencm3/lib/libopencm3_stm32f1.a(vector.o)
